; Function Attrs: nounwind uwtable
define hidden i32 @SDL_GetJoystickType_REAL(ptr noundef %0) local_unnamed_addr #1 {
  %2 = tail call { i64, i64 } @SDL_GetJoystickGUID_REAL(ptr noundef %0)
  %3 = extractvalue { i64, i64 } %2, 0
  %4 = extractvalue { i64, i64 } %2, 1
  %5 = tail call fastcc i32 @SDL_GetJoystickGUIDType(i64 %3, i64 %4)
  %6 = icmp eq i32 %5, 0
  br i1 %6, label %7, label %SDL_UnlockJoysticks_REAL.exit

7:                                                ; preds = %1
  %8 = tail call i32 @SDL_AddAtomicInt_REAL(ptr noundef nonnull @SDL_joystick_lock_pending, i32 noundef 1) #13
  %9 = load ptr, ptr @SDL_joystick_lock, align 8
  tail call void @SDL_LockMutex_REAL(ptr noundef %9) #13
  %10 = tail call i32 @SDL_AddAtomicInt_REAL(ptr noundef nonnull @SDL_joystick_lock_pending, i32 noundef -1) #13
  %11 = load i32, ptr @SDL_joysticks_locked, align 4
  %12 = add nsw i32 %11, 1
  store i32 %12, ptr @SDL_joysticks_locked, align 4
  %13 = tail call zeroext i1 @SDL_ObjectValid(ptr noundef %0, i32 noundef 4) #13
  br i1 %13, label %26, label %14

14:                                               ; preds = %7
  %15 = tail call zeroext i1 (ptr, ...) @SDL_SetError_REAL(ptr noundef nonnull @.str.2, ptr noundef nonnull @.str.3) #13
  %16 = load i32, ptr @SDL_joysticks_locked, align 4
  %17 = add nsw i32 %16, -1
  store i32 %17, ptr @SDL_joysticks_locked, align 4
  %.b4.i = load i1, ptr @SDL_joysticks_initialized, align 1
  %18 = icmp ne i32 %17, 0
  %or.cond.i = select i1 %.b4.i, i1 true, i1 %18
  br i1 %or.cond.i, label %.critedge.i, label %19

19:                                               ; preds = %14
  %20 = tail call i32 @SDL_GetAtomicInt_REAL(ptr noundef nonnull @SDL_joystick_lock_pending) #13
  %21 = icmp eq i32 %20, 0
  br i1 %21, label %22, label %.critedge.i

22:                                               ; preds = %19
  %23 = load ptr, ptr @SDL_joystick_lock, align 8
  tail call void @SDL_LockMutex_REAL(ptr noundef %23) #13
  %24 = load ptr, ptr @SDL_joystick_lock, align 8
  tail call void @SDL_UnlockMutex_REAL(ptr noundef %24) #13
  store ptr null, ptr @SDL_joystick_lock, align 8
  tail call void @SDL_UnlockMutex_REAL(ptr noundef %23) #13
  tail call void @SDL_DestroyMutex_REAL(ptr noundef %23) #13
  br label %SDL_UnlockJoysticks_REAL.exit

.critedge.i:                                      ; preds = %19, %14
  %25 = load ptr, ptr @SDL_joystick_lock, align 8
  tail call void @SDL_UnlockMutex_REAL(ptr noundef %25) #13
  br label %SDL_UnlockJoysticks_REAL.exit

26:                                               ; preds = %7
  %27 = load i32, ptr %0, align 8
  %28 = tail call zeroext i1 @SDL_IsGamepad_REAL(i32 noundef %27) #13
  %spec.select = zext i1 %28 to i32
  %29 = load i32, ptr @SDL_joysticks_locked, align 4
  %30 = add nsw i32 %29, -1
  store i32 %30, ptr @SDL_joysticks_locked, align 4
  %.b4.i8 = load i1, ptr @SDL_joysticks_initialized, align 1
  %31 = icmp ne i32 %30, 0
  %or.cond.i9 = select i1 %.b4.i8, i1 true, i1 %31
  br i1 %or.cond.i9, label %.critedge.i10, label %32

32:                                               ; preds = %26
  %33 = tail call i32 @SDL_GetAtomicInt_REAL(ptr noundef nonnull @SDL_joystick_lock_pending) #13
  %34 = icmp eq i32 %33, 0
  br i1 %34, label %35, label %.critedge.i10

35:                                               ; preds = %32
  %36 = load ptr, ptr @SDL_joystick_lock, align 8
  tail call void @SDL_LockMutex_REAL(ptr noundef %36) #13
  %37 = load ptr, ptr @SDL_joystick_lock, align 8
  tail call void @SDL_UnlockMutex_REAL(ptr noundef %37) #13
  store ptr null, ptr @SDL_joystick_lock, align 8
  tail call void @SDL_UnlockMutex_REAL(ptr noundef %36) #13
  tail call void @SDL_DestroyMutex_REAL(ptr noundef %36) #13
  br label %SDL_UnlockJoysticks_REAL.exit

.critedge.i10:                                    ; preds = %32, %26
  %38 = load ptr, ptr @SDL_joystick_lock, align 8
  tail call void @SDL_UnlockMutex_REAL(ptr noundef %38) #13
  br label %SDL_UnlockJoysticks_REAL.exit

SDL_UnlockJoysticks_REAL.exit:                    ; preds = %.critedge.i10, %35, %.critedge.i, %22, %1
  %.0 = phi i32 [ %5, %1 ], [ 0, %22 ], [ 0, %.critedge.i ], [ %spec.select, %35 ], [ %spec.select, %.critedge.i10 ]
  ret i32 %.0
}